; Function Attrs: nounwind uwtable
define ptr @l_Lean_Loop_forIn_loop___at_Lean_DeclNameGenerator_mkUniqueName___spec__1(ptr noundef %0, ptr noundef %1, ptr noundef %2) local_unnamed_addr #1 {
  %4 = ptrtoint ptr %1 to i64
  %5 = and i64 %4, 1
  %.not = icmp eq i64 %5, 0
  %6 = ptrtoint ptr %0 to i64
  %7 = and i64 %6, 1
  %.not34 = icmp eq i64 %7, 0
  br i1 %.not, label %.split.us, label %.split

.split.us:                                        ; preds = %3
  br i1 %.not34, label %.split.us.split.us, label %.split.us.split

.split.us.split.us:                               ; preds = %.split.us, %lean_dec.exit.us.us
  %.015.us.us = phi ptr [ %31, %lean_dec.exit.us.us ], [ %2, %.split.us ]
  %.val.i.us.us = load i32, ptr %1, align 4, !tbaa !4
  %8 = icmp sgt i32 %.val.i.us.us, 0
  br i1 %8, label %11, label %9, !prof !11

9:                                                ; preds = %.split.us.split.us
  %.not.i24.us.us = icmp eq i32 %.val.i.us.us, 0
  br i1 %.not.i24.us.us, label %lean_inc.exit19.us.us, label %10

10:                                               ; preds = %9
  tail call void @lean_inc_ref_cold(ptr noundef nonnull %1) #7
  br label %lean_inc.exit19.us.us

11:                                               ; preds = %.split.us.split.us
  %12 = add nuw i32 %.val.i.us.us, 1
  store i32 %12, ptr %1, align 4, !tbaa !4
  br label %lean_inc.exit19.us.us

lean_inc.exit19.us.us:                            ; preds = %11, %10, %9
  %13 = tail call ptr @l___private_Lean_CoreM_0__Lean_DeclNameGenerator_idxs(ptr noundef readonly %.015.us.us)
  %14 = tail call ptr @l_List_foldrTR___at_Lean_DeclNameGenerator_mkUniqueName_curr___spec__1(ptr noundef nonnull %1, ptr noundef nonnull %13)
  %.val.i25.us.us = load i32, ptr %0, align 4, !tbaa !4
  %15 = icmp sgt i32 %.val.i25.us.us, 0
  br i1 %15, label %18, label %16, !prof !11

16:                                               ; preds = %lean_inc.exit19.us.us
  %.not.i26.us.us = icmp eq i32 %.val.i25.us.us, 0
  br i1 %.not.i26.us.us, label %lean_inc.exit.us.us, label %17

17:                                               ; preds = %16
  tail call void @lean_inc_ref_cold(ptr noundef nonnull %0) #7
  br label %lean_inc.exit.us.us

18:                                               ; preds = %lean_inc.exit19.us.us
  %19 = add nuw i32 %.val.i25.us.us, 1
  store i32 %19, ptr %0, align 4, !tbaa !4
  br label %lean_inc.exit.us.us

lean_inc.exit.us.us:                              ; preds = %18, %17, %16
  %20 = tail call zeroext i8 @l_Lean_Environment_containsOnBranch(ptr noundef nonnull %0, ptr noundef %14) #7
  %21 = ptrtoint ptr %14 to i64
  %22 = and i64 %21, 1
  %.not35.us.us = icmp eq i64 %22, 0
  br i1 %.not35.us.us, label %23, label %lean_dec.exit18.us.us

23:                                               ; preds = %lean_inc.exit.us.us
  %24 = load i32, ptr %14, align 4, !tbaa !4
  %25 = icmp sgt i32 %24, 1
  br i1 %25, label %28, label %26, !prof !11

26:                                               ; preds = %23
  %.not.i.us.us = icmp eq i32 %24, 0
  br i1 %.not.i.us.us, label %lean_dec.exit18.us.us, label %27

27:                                               ; preds = %26
  tail call void @lean_dec_ref_cold(ptr noundef nonnull %14) #7
  br label %lean_dec.exit18.us.us

28:                                               ; preds = %23
  %29 = add nsw i32 %24, -1
  store i32 %29, ptr %14, align 4, !tbaa !4
  br label %lean_dec.exit18.us.us

lean_dec.exit18.us.us:                            ; preds = %28, %27, %26, %lean_inc.exit.us.us
  %30 = icmp eq i8 %20, 0
  br i1 %30, label %.split37.us, label %lean_dec.exit.us.us

lean_dec.exit.us.us:                              ; preds = %lean_dec.exit18.us.us
  %31 = tail call ptr @l_Lean_DeclNameGenerator_next(ptr noundef %.015.us.us)
  br label %.split.us.split.us

.split.us.split:                                  ; preds = %.split.us, %lean_dec.exit.us
  %.015.us = phi ptr [ %50, %lean_dec.exit.us ], [ %2, %.split.us ]
  %.val.i.us = load i32, ptr %1, align 4, !tbaa !4
  %32 = icmp sgt i32 %.val.i.us, 0
  br i1 %32, label %35, label %33, !prof !11

33:                                               ; preds = %.split.us.split
  %.not.i24.us = icmp eq i32 %.val.i.us, 0
  br i1 %.not.i24.us, label %lean_inc.exit19.us, label %34

34:                                               ; preds = %33
  tail call void @lean_inc_ref_cold(ptr noundef nonnull %1) #7
  br label %lean_inc.exit19.us

35:                                               ; preds = %.split.us.split
  %36 = add nuw i32 %.val.i.us, 1
  store i32 %36, ptr %1, align 4, !tbaa !4
  br label %lean_inc.exit19.us

lean_inc.exit19.us:                               ; preds = %35, %34, %33
  %37 = tail call ptr @l___private_Lean_CoreM_0__Lean_DeclNameGenerator_idxs(ptr noundef readonly %.015.us)
  %38 = tail call ptr @l_List_foldrTR___at_Lean_DeclNameGenerator_mkUniqueName_curr___spec__1(ptr noundef nonnull %1, ptr noundef nonnull %37)
  %39 = tail call zeroext i8 @l_Lean_Environment_containsOnBranch(ptr noundef %0, ptr noundef %38) #7
  %40 = ptrtoint ptr %38 to i64
  %41 = and i64 %40, 1
  %.not35.us = icmp eq i64 %41, 0
  br i1 %.not35.us, label %42, label %lean_dec.exit18.us

42:                                               ; preds = %lean_inc.exit19.us
  %43 = load i32, ptr %38, align 4, !tbaa !4
  %44 = icmp sgt i32 %43, 1
  br i1 %44, label %47, label %45, !prof !11

45:                                               ; preds = %42
  %.not.i.us = icmp eq i32 %43, 0
  br i1 %.not.i.us, label %lean_dec.exit18.us, label %46

46:                                               ; preds = %45
  tail call void @lean_dec_ref_cold(ptr noundef nonnull %38) #7
  br label %lean_dec.exit18.us

47:                                               ; preds = %42
  %48 = add nsw i32 %43, -1
  store i32 %48, ptr %38, align 4, !tbaa !4
  br label %lean_dec.exit18.us

lean_dec.exit18.us:                               ; preds = %47, %46, %45, %lean_inc.exit19.us
  %49 = icmp eq i8 %39, 0
  br i1 %49, label %.split37.us, label %lean_dec.exit.us

lean_dec.exit.us:                                 ; preds = %lean_dec.exit18.us
  %50 = tail call ptr @l_Lean_DeclNameGenerator_next(ptr noundef %.015.us)
  br label %.split.us.split

.split:                                           ; preds = %3
  br i1 %.not34, label %lean_inc.exit19.us40, label %lean_inc.exit19

lean_inc.exit19.us40:                             ; preds = %.split, %lean_dec.exit.us48
  %.015.us41 = phi ptr [ %69, %lean_dec.exit.us48 ], [ %2, %.split ]
  %51 = tail call ptr @l___private_Lean_CoreM_0__Lean_DeclNameGenerator_idxs(ptr noundef readonly %.015.us41)
  %52 = tail call ptr @l_List_foldrTR___at_Lean_DeclNameGenerator_mkUniqueName_curr___spec__1(ptr noundef %1, ptr noundef nonnull %51)
  %.val.i25.us42 = load i32, ptr %0, align 4, !tbaa !4
  %53 = icmp sgt i32 %.val.i25.us42, 0
  br i1 %53, label %56, label %54, !prof !11

54:                                               ; preds = %lean_inc.exit19.us40
  %.not.i26.us43 = icmp eq i32 %.val.i25.us42, 0
  br i1 %.not.i26.us43, label %lean_inc.exit.us44, label %55

55:                                               ; preds = %54
  tail call void @lean_inc_ref_cold(ptr noundef nonnull %0) #7
  br label %lean_inc.exit.us44

56:                                               ; preds = %lean_inc.exit19.us40
  %57 = add nuw i32 %.val.i25.us42, 1
  store i32 %57, ptr %0, align 4, !tbaa !4
  br label %lean_inc.exit.us44

lean_inc.exit.us44:                               ; preds = %56, %55, %54
  %58 = tail call zeroext i8 @l_Lean_Environment_containsOnBranch(ptr noundef nonnull %0, ptr noundef %52) #7
  %59 = ptrtoint ptr %52 to i64
  %60 = and i64 %59, 1
  %.not35.us45 = icmp eq i64 %60, 0
  br i1 %.not35.us45, label %61, label %lean_dec.exit18.us47

61:                                               ; preds = %lean_inc.exit.us44
  %62 = load i32, ptr %52, align 4, !tbaa !4
  %63 = icmp sgt i32 %62, 1
  br i1 %63, label %66, label %64, !prof !11

64:                                               ; preds = %61
  %.not.i.us46 = icmp eq i32 %62, 0
  br i1 %.not.i.us46, label %lean_dec.exit18.us47, label %65

65:                                               ; preds = %64
  tail call void @lean_dec_ref_cold(ptr noundef nonnull %52) #7
  br label %lean_dec.exit18.us47

66:                                               ; preds = %61
  %67 = add nsw i32 %62, -1
  store i32 %67, ptr %52, align 4, !tbaa !4
  br label %lean_dec.exit18.us47

lean_dec.exit18.us47:                             ; preds = %66, %65, %64, %lean_inc.exit.us44
  %68 = icmp eq i8 %58, 0
  br i1 %68, label %.split37.us, label %lean_dec.exit.us48

lean_dec.exit.us48:                               ; preds = %lean_dec.exit18.us47
  %69 = tail call ptr @l_Lean_DeclNameGenerator_next(ptr noundef %.015.us41)
  br label %lean_inc.exit19.us40

lean_inc.exit19:                                  ; preds = %.split, %lean_dec.exit
  %.015 = phi ptr [ %97, %lean_dec.exit ], [ %2, %.split ]
  %70 = tail call ptr @l___private_Lean_CoreM_0__Lean_DeclNameGenerator_idxs(ptr noundef readonly %.015)
  %71 = tail call ptr @l_List_foldrTR___at_Lean_DeclNameGenerator_mkUniqueName_curr___spec__1(ptr noundef %1, ptr noundef nonnull %70)
  %72 = tail call zeroext i8 @l_Lean_Environment_containsOnBranch(ptr noundef %0, ptr noundef %71) #7
  %73 = ptrtoint ptr %71 to i64
  %74 = and i64 %73, 1
  %.not35 = icmp eq i64 %74, 0
  br i1 %.not35, label %75, label %lean_dec.exit18

75:                                               ; preds = %lean_inc.exit19
  %76 = load i32, ptr %71, align 4, !tbaa !4
  %77 = icmp sgt i32 %76, 1
  br i1 %77, label %78, label %80, !prof !11

78:                                               ; preds = %75
  %79 = add nsw i32 %76, -1
  store i32 %79, ptr %71, align 4, !tbaa !4
  br label %lean_dec.exit18

80:                                               ; preds = %75
  %.not.i = icmp eq i32 %76, 0
  br i1 %.not.i, label %lean_dec.exit18, label %81

81:                                               ; preds = %80
  tail call void @lean_dec_ref_cold(ptr noundef nonnull %71) #7
  br label %lean_dec.exit18

lean_dec.exit18:                                  ; preds = %81, %80, %78, %lean_inc.exit19
  %82 = icmp eq i8 %72, 0
  br i1 %82, label %.split37.us, label %lean_dec.exit

.split37.us:                                      ; preds = %lean_dec.exit18, %lean_dec.exit18.us47, %lean_dec.exit18.us, %lean_dec.exit18.us.us
  %.us-phi = phi i1 [ true, %lean_dec.exit18.us.us ], [ false, %lean_dec.exit18.us ], [ true, %lean_dec.exit18.us47 ], [ false, %lean_dec.exit18 ]
  %.us-phi38 = phi ptr [ %.015.us.us, %lean_dec.exit18.us.us ], [ %.015.us, %lean_dec.exit18.us ], [ %.015.us41, %lean_dec.exit18.us47 ], [ %.015, %lean_dec.exit18 ]
  br i1 %.not, label %83, label %lean_dec.exit17

83:                                               ; preds = %.split37.us
  %84 = load i32, ptr %1, align 4, !tbaa !4
  %85 = icmp sgt i32 %84, 1
  br i1 %85, label %86, label %88, !prof !11

86:                                               ; preds = %83
  %87 = add nsw i32 %84, -1
  store i32 %87, ptr %1, align 4, !tbaa !4
  br label %lean_dec.exit17

88:                                               ; preds = %83
  %.not.i20 = icmp eq i32 %84, 0
  br i1 %.not.i20, label %lean_dec.exit17, label %89

89:                                               ; preds = %88
  tail call void @lean_dec_ref_cold(ptr noundef nonnull %1) #7
  br label %lean_dec.exit17

lean_dec.exit17:                                  ; preds = %89, %88, %86, %.split37.us
  br i1 %.us-phi, label %90, label %98

90:                                               ; preds = %lean_dec.exit17
  %91 = load i32, ptr %0, align 4, !tbaa !4
  %92 = icmp sgt i32 %91, 1
  br i1 %92, label %93, label %95, !prof !11

93:                                               ; preds = %90
  %94 = add nsw i32 %91, -1
  store i32 %94, ptr %0, align 4, !tbaa !4
  br label %98

95:                                               ; preds = %90
  %.not.i22 = icmp eq i32 %91, 0
  br i1 %.not.i22, label %98, label %96

96:                                               ; preds = %95
  tail call void @lean_dec_ref_cold(ptr noundef nonnull %0) #7
  br label %98

lean_dec.exit:                                    ; preds = %lean_dec.exit18
  %97 = tail call ptr @l_Lean_DeclNameGenerator_next(ptr noundef %.015)
  br label %lean_inc.exit19

98:                                               ; preds = %96, %95, %93, %lean_dec.exit17
  ret ptr %.us-phi38
}